(dp0
S'AA'
p1
I167693
sS'OO'
p2
I326561
sS'DL'
p3
I252396
sS'HA'
p4
I256648
sS'F9'
p5
I293345
sS'AS'
p6
I144073
sS'B6'
p7
I162502
sS'NK'
p8
I323975
sS'MQ'
p9
I323282
sS'WN'
p10
I252064
sS'VX'
p11
I177415
sS'EV'
p12
I283400
sS'UA'
p13
I336113
s.